target datalayout = "e-m:e-p270:32:32-p271:32:32-p272:64:64-i64:64-i128:128-f80:128-n8:16:32:64-S128"
target triple = "x86_64-pc-linux-gnu"

%"struct.dpx::GenericHeader" = type { i32, i32, [8 x i8], i32, i32, i32, i32, i32, [100 x i8], [24 x i8], [100 x i8], [200 x i8], [200 x i8], i32, [104 x i8], i16, i16, i32, i32, [8 x %"struct.dpx::ImageElement"], [52 x i8], i32, i32, float, float, i32, i32, [100 x i8], [24 x i8], [32 x i8], [32 x i8], [4 x i16], [2 x i32], float, float, [20 x i8] }
%"struct.dpx::ImageElement" = type { i32, i32, float, i32, float, i8, i8, i8, i8, i16, i16, i32, i32, i32, [32 x i8] }

; Function Attrs: mustprogress nounwind uwtable
define hidden noundef i32 @_ZNK3dpx13GenericHeader26ImageElementComponentCountEi(ptr noundef nonnull align 4 dereferenceable(1664) %0, i32 noundef %1) #6 align 2 {
  %3 = alloca ptr, align 8
  %4 = alloca i32, align 4
  %5 = alloca i32, align 4
  store ptr %0, ptr %3, align 8, !tbaa !19
  store i32 %1, ptr %4, align 4, !tbaa !42
  %6 = load ptr, ptr %3, align 8
  call void @llvm.lifetime.start.p0(i64 4, ptr %5) #5
  store i32 1, ptr %5, align 4, !tbaa !42
  %7 = getelementptr inbounds nuw %"struct.dpx::GenericHeader", ptr %6, i32 0, i32 19
  %8 = load i32, ptr %4, align 4, !tbaa !42
  %9 = sext i32 %8 to i64
  %10 = getelementptr inbounds [8 x %"struct.dpx::ImageElement"], ptr %7, i64 0, i64 %9
  %11 = getelementptr inbounds nuw %"struct.dpx::ImageElement", ptr %10, i32 0, i32 5
  %12 = load i8, ptr %11, align 4, !tbaa !84
  %13 = zext i8 %12 to i32
  switch i32 %13, label %29 [
    i32 0, label %14
    i32 1, label %14
    i32 2, label %14
    i32 3, label %14
    i32 4, label %14
    i32 6, label %14
    i32 7, label %14
    i32 8, label %14
    i32 9, label %15
    i32 50, label %16
    i32 51, label %17
    i32 52, label %17
    i32 100, label %18
    i32 101, label %19
    i32 102, label %20
    i32 103, label %21
    i32 150, label %22
    i32 151, label %23
    i32 152, label %24
    i32 153, label %25
    i32 154, label %26
    i32 155, label %27
    i32 156, label %28
  ]

14:                                               ; preds = %2, %2, %2, %2, %2, %2, %2, %2
  store i32 1, ptr %5, align 4, !tbaa !42
  br label %29

15:                                               ; preds = %2
  store i32 1, ptr %5, align 4, !tbaa !42
  br label %29

16:                                               ; preds = %2
  store i32 3, ptr %5, align 4, !tbaa !42
  br label %29

17:                                               ; preds = %2, %2
  store i32 4, ptr %5, align 4, !tbaa !42
  br label %29

18:                                               ; preds = %2
  store i32 2, ptr %5, align 4, !tbaa !42
  br label %29

19:                                               ; preds = %2
  store i32 3, ptr %5, align 4, !tbaa !42
  br label %29

20:                                               ; preds = %2
  store i32 3, ptr %5, align 4, !tbaa !42
  br label %29

21:                                               ; preds = %2
  store i32 4, ptr %5, align 4, !tbaa !42
  br label %29

22:                                               ; preds = %2
  store i32 2, ptr %5, align 4, !tbaa !42
  br label %29

23:                                               ; preds = %2
  store i32 3, ptr %5, align 4, !tbaa !42
  br label %29

24:                                               ; preds = %2
  store i32 4, ptr %5, align 4, !tbaa !42
  br label %29

25:                                               ; preds = %2
  store i32 5, ptr %5, align 4, !tbaa !42
  br label %29

26:                                               ; preds = %2
  store i32 6, ptr %5, align 4, !tbaa !42
  br label %29

27:                                               ; preds = %2
  store i32 7, ptr %5, align 4, !tbaa !42
  br label %29

28:                                               ; preds = %2
  store i32 8, ptr %5, align 4, !tbaa !42
  br label %29

29:                                               ; preds = %2, %28, %27, %26, %25, %24, %23, %22, %21, %20, %19, %18, %17, %16, %15, %14
  %30 = load i32, ptr %5, align 4, !tbaa !42
  call void @llvm.lifetime.end.p0(i64 4, ptr %5) #5
  ret i32 %30
}