; Function Attrs: mustprogress nofree norecurse nosync nounwind willreturn memory(argmem: read) uwtable
define hidden noundef range(i32 1, 9) i32 @_ZNK3dpx13GenericHeader26ImageElementComponentCountEi(ptr noundef nonnull readonly align 4 captures(none) dereferenceable(1664) %0, i32 noundef %1) local_unnamed_addr #11 align 2 {
  %3 = sext i32 %1 to i64
  %.idx = mul nsw i64 %3, 72
  %4 = getelementptr inbounds nuw i8, ptr %0, i64 800
  %5 = getelementptr i8, ptr %4, i64 %.idx
  %6 = load i8, ptr %5, align 4, !tbaa !65
  switch i8 %6, label %14 [
    i8 -100, label %13
    i8 -101, label %12
    i8 -102, label %11
    i8 -103, label %10
    i8 -104, label %8
    i8 -105, label %7
    i8 -106, label %9
    i8 103, label %8
    i8 102, label %7
    i8 50, label %7
    i8 51, label %8
    i8 52, label %8
    i8 100, label %9
    i8 101, label %7
  ]

7:                                                ; preds = %2, %2, %2, %2
  br label %14

8:                                                ; preds = %2, %2, %2, %2
  br label %14

9:                                                ; preds = %2, %2
  br label %14

10:                                               ; preds = %2
  br label %14

11:                                               ; preds = %2
  br label %14

12:                                               ; preds = %2
  br label %14

13:                                               ; preds = %2
  br label %14

14:                                               ; preds = %13, %12, %11, %10, %9, %8, %7, %2
  %.0 = phi i32 [ 8, %13 ], [ 7, %12 ], [ 6, %11 ], [ 5, %10 ], [ 2, %9 ], [ 4, %8 ], [ 3, %7 ], [ 1, %2 ]
  ret i32 %.0
}